; Function Attrs: mustprogress nounwind uwtable
define internal fastcc void @_ZN10__cxxabiv112_GLOBAL__N_114st_cxa_cleanupD2Ev(ptr noundef nonnull readonly align 8 captures(none) dereferenceable(33) %0) unnamed_addr #4 align 2 personality ptr @__gxx_personality_v0 {
  %2 = getelementptr inbounds nuw i8, ptr %0, i64 32
  %3 = load i8, ptr %2, align 8, !tbaa !16, !range !20, !noundef !21
  %4 = trunc nuw i8 %3 to i1
  br i1 %4, label %5, label %__cxa_vec_cleanup.exit

5:                                                ; preds = %1
  %6 = getelementptr inbounds nuw i8, ptr %0, i64 24
  %7 = load ptr, ptr %6, align 8, !tbaa !15
  %.not.i = icmp eq ptr %7, null
  br i1 %.not.i, label %__cxa_vec_cleanup.exit, label %8

8:                                                ; preds = %5
  %9 = getelementptr inbounds nuw i8, ptr %0, i64 16
  %10 = load i64, ptr %9, align 8, !tbaa !14
  %11 = getelementptr inbounds nuw i8, ptr %0, i64 8
  %12 = load ptr, ptr %11, align 8, !tbaa !22
  %13 = load i64, ptr %12, align 8, !tbaa !4
  %14 = load ptr, ptr %0, align 8, !tbaa !8
  %15 = mul i64 %13, %10
  %16 = getelementptr inbounds nuw i8, ptr %14, i64 %15
  %17 = sub i64 0, %10
  br label %18

18:                                               ; preds = %19, %8
  %.012.i = phi i64 [ %13, %8 ], [ %20, %19 ]
  %.0.i = phi ptr [ %16, %8 ], [ %21, %19 ]
  %.not14.i = icmp eq i64 %.012.i, 0
  br i1 %.not14.i, label %__cxa_vec_cleanup.exit, label %19

19:                                               ; preds = %18
  %20 = add i64 %.012.i, -1
  %21 = getelementptr inbounds i8, ptr %.0.i, i64 %17
  invoke void %7(ptr noundef %21)
          to label %18 unwind label %22, !llvm.loop !23

22:                                               ; preds = %19
  %23 = landingpad { ptr, i32 }
          catch ptr null
  tail call void @_ZSt9terminatev() #13
  unreachable

__cxa_vec_cleanup.exit:                           ; preds = %18, %5, %1
  ret void
}